Certificate:
    Data:
        Version: 3 (0x2)
        Serial Number: 21 (0x15)
    Signature Algorithm: sha256WithRSAEncryption
        Issuer: C=US, ST=California, L=Default City, O=Default Company Ltd, CN=rablair/emailAddress=rablair@calpoly.edu
        Validity
            Not Before: Feb  6 20:32:04 2018 GMT
            Not After : Feb  6 20:32:04 2019 GMT
        Subject: C=US, ST=California, L=Default City, O=Default Company Ltd, CN=google.com
        Subject Public Key Info:
            Public Key Algorithm: rsaEncryption
                Public-Key: (1024 bit)
                Modulus:
                    00:b0:63:2f:30:a8:ce:7d:c0:12:8b:6d:e9:69:84:
                    28:60:d0:b6:d2:30:e3:d8:4f:21:08:cd:56:e9:25:
                    2c:2d:60:32:d5:88:96:53:c1:f5:35:ef:50:cd:1c:
                    05:29:26:8e:47:a2:32:40:ac:92:11:d0:b4:c7:e8:
                    fa:71:9d:55:05:8d:1f:a6:2e:19:58:73:42:4e:11:
                    64:48:9a:e8:b6:19:f2:fa:75:92:05:ee:30:8d:c8:
                    c7:35:fb:38:5a:24:49:59:82:02:19:53:97:14:91:
                    b4:a1:eb:87:e6:47:9c:df:e3:ce:5a:08:7d:00:86:
                    61:76:75:0a:ba:b9:4f:06:cb
                Exponent: 65537 (0x10001)
        X509v3 extensions:
            X509v3 Basic Constraints: 
                CA:FALSE
            Netscape Comment: 
                OpenSSL Generated Certificate
            X509v3 Subject Key Identifier: 
                CC:CC:9D:A3:93:A4:63:BD:50:DD:9D:9C:85:E5:8E:59:8E:F7:0D:4E
            X509v3 Authority Key Identifier: 
                keyid:81:D5:3D:67:7E:44:03:A8:8F:2B:00:98:9A:C2:A2:03:BA:DA:60:7A

    Signature Algorithm: sha256WithRSAEncryption
         28:70:94:a9:9e:f2:7b:f1:46:ed:81:9e:81:86:94:fd:52:ad:
         82:10:da:5c:10:17:aa:8d:e3:47:7f:fd:d0:ca:69:61:ea:f0:
         0b:6e:f1:68:01:9c:22:c9:f0:66:9d:1a:d1:0c:ce:2e:ab:58:
         96:27:bf:00:b7:a2:bd:92:64:15:2d:6f:99:c5:ff:4b:0f:44:
         9f:18:1b:16:5f:7b:8a:c9:bb:b6:44:af:98:91:62:7c:ea:3c:
         ca:0a:b8:c8:78:ff:92:8f:06:fe:16:e6:9f:a6:62:d3:bb:78:
         79:cb:15:37:92:42:cc:f0:fa:c6:34:62:a3:f1:1b:77:de:03:
         24:0a:dd:c0:20:7b:ab:58:4d:a6:63:5f:22:23:b3:03:6b:9c:
         01:a5:43:3f:0e:d8:ba:ba:a8:78:55:3b:80:33:3b:3b:47:bd:
         89:1b:75:e8:a0:29:4b:81:ad:a5:0b:38:6d:dc:5c:a5:09:cf:
         f2:02:52:e2:c5:72:25:a6:87:ee:03:b6:9e:8d:ab:9d:c3:b3:
         4d:64:ba:15:31:fb:51:d8:b0:66:19:ff:9b:a6:fd:e6:88:88:
         38:04:72:92:bc:30:ed:03:fd:d4:a7:51:60:9a:91:c5:ba:07:
         fc:c4:a6:49:12:1f:8f:d7:aa:32:db:ae:a4:2b:6f:9f:65:c3:
         55:1d:a9:b8
-----BEGIN CERTIFICATE-----
MIIDbDCCAlSgAwIBAgIBFTANBgkqhkiG9w0BAQsFADCBjTELMAkGA1UEBhMCVVMx
EzARBgNVBAgMCkNhbGlmb3JuaWExFTATBgNVBAcMDERlZmF1bHQgQ2l0eTEcMBoG
A1UECgwTRGVmYXVsdCBDb21wYW55IEx0ZDEQMA4GA1UEAwwHcmFibGFpcjEiMCAG
CSqGSIb3DQEJARYTcmFibGFpckBjYWxwb2x5LmVkdTAeFw0xODAyMDYyMDMyMDRa
Fw0xOTAyMDYyMDMyMDRaMGwxCzAJBgNVBAYTAlVTMRMwEQYDVQQIDApDYWxpZm9y
bmlhMRUwEwYDVQQHDAxEZWZhdWx0IENpdHkxHDAaBgNVBAoME0RlZmF1bHQgQ29t
cGFueSBMdGQxEzARBgNVBAMMCmdvb2dsZS5jb20wgZ8wDQYJKoZIhvcNAQEBBQAD
gY0AMIGJAoGBALBjLzCozn3AEott6WmEKGDQttIw49hPIQjNVuklLC1gMtWIllPB
9TXvUM0cBSkmjkeiMkCskhHQtMfo+nGdVQWNH6YuGVhzQk4RZEia6LYZ8vp1kgXu
MI3IxzX7OFokSVmCAhlTlxSRtKHrh+ZHnN/jzloIfQCGYXZ1Crq5TwbLAgMBAAGj
ezB5MAkGA1UdEwQCMAAwLAYJYIZIAYb4QgENBB8WHU9wZW5TU0wgR2VuZXJhdGVk
IENlcnRpZmljYXRlMB0GA1UdDgQWBBTMzJ2jk6RjvVDdnZyF5Y5ZjvcNTjAfBgNV
HSMEGDAWgBSB1T1nfkQDqI8rAJiawqIDutpgejANBgkqhkiG9w0BAQsFAAOCAQEA
KHCUqZ7ye/FG7YGegYaU/VKtghDaXBAXqo3jR3/90MppYerwC27xaAGcIsnwZp0a
0QzOLqtYlie/ALeivZJkFS1vmcX/Sw9EnxgbFl97ism7tkSvmJFifOo8ygq4yHj/
ko8G/hbmn6Zi07t4ecsVN5JCzPD6xjRio/Ebd94DJArdwCB7q1hNpmNfIiOzA2uc
AaVDPw7YurqoeFU7gDM7O0e9iRt16KApS4GtpQs4bdxcpQnP8gJS4sVyJaaH7gO2
no2rncOzTWS6FTH7UdiwZhn/m6b95oiIOARykrww7QP91KdRYJqRxboH/MSmSRIf
j9eqMtuupCtvn2XDVR2puA==
-----END CERTIFICATE-----
